; Function Attrs: mustprogress nounwind uwtable
define internal fastcc void @_ZNSt6vectorIN2cv3dnn14dnn4_v2024122312_GLOBAL__N_113CaffeImporter8BlobNoteESaIS5_EED2Ev(ptr noundef nonnull readonly align 8 captures(none) dereferenceable(24) %0) unnamed_addr #6 align 2 personality ptr @__gxx_personality_v0 {
  %2 = load ptr, ptr %0, align 8, !tbaa !36
  %3 = getelementptr inbounds nuw i8, ptr %0, i64 8
  %4 = load ptr, ptr %3, align 8, !tbaa !39
  %.not4.i.i.i = icmp eq ptr %2, %4
  br i1 %.not4.i.i.i, label %_ZSt8_DestroyIPN2cv3dnn14dnn4_v2024122312_GLOBAL__N_113CaffeImporter8BlobNoteES5_EvT_S7_RSaIT0_E.exit, label %.lr.ph.i.i.i

.lr.ph.i.i.i:                                     ; preds = %1, %_ZSt8_DestroyIN2cv3dnn14dnn4_v2024122312_GLOBAL__N_113CaffeImporter8BlobNoteEEvPT_.exit.i.i.i
  %.05.i.i.i = phi ptr [ %11, %_ZSt8_DestroyIN2cv3dnn14dnn4_v2024122312_GLOBAL__N_113CaffeImporter8BlobNoteEEvPT_.exit.i.i.i ], [ %2, %1 ]
  %5 = load ptr, ptr %.05.i.i.i, align 8, !tbaa !3
  %6 = getelementptr inbounds nuw i8, ptr %.05.i.i.i, i64 16
  %7 = icmp eq ptr %5, %6
  br i1 %7, label %_ZNKSt7__cxx1112basic_stringIcSt11char_traitsIcESaIcEE11_M_is_localEv.exit.thread.i.i.i.i.i.i.i, label %_ZNKSt7__cxx1112basic_stringIcSt11char_traitsIcESaIcEE11_M_is_localEv.exit.i.i.i.i.i.i.i

_ZNKSt7__cxx1112basic_stringIcSt11char_traitsIcESaIcEE11_M_is_localEv.exit.thread.i.i.i.i.i.i.i: ; preds = %.lr.ph.i.i.i
  %8 = getelementptr inbounds nuw i8, ptr %.05.i.i.i, i64 8
  %9 = load i64, ptr %8, align 8, !tbaa !40
  %10 = icmp ult i64 %9, 16
  tail call void @llvm.assume(i1 %10)
  br label %_ZSt8_DestroyIN2cv3dnn14dnn4_v2024122312_GLOBAL__N_113CaffeImporter8BlobNoteEEvPT_.exit.i.i.i

_ZNKSt7__cxx1112basic_stringIcSt11char_traitsIcESaIcEE11_M_is_localEv.exit.i.i.i.i.i.i.i: ; preds = %.lr.ph.i.i.i
  tail call void @_ZdlPv(ptr noundef %5) #28
  br label %_ZSt8_DestroyIN2cv3dnn14dnn4_v2024122312_GLOBAL__N_113CaffeImporter8BlobNoteEEvPT_.exit.i.i.i

_ZSt8_DestroyIN2cv3dnn14dnn4_v2024122312_GLOBAL__N_113CaffeImporter8BlobNoteEEvPT_.exit.i.i.i: ; preds = %_ZNKSt7__cxx1112basic_stringIcSt11char_traitsIcESaIcEE11_M_is_localEv.exit.i.i.i.i.i.i.i, %_ZNKSt7__cxx1112basic_stringIcSt11char_traitsIcESaIcEE11_M_is_localEv.exit.thread.i.i.i.i.i.i.i
  %11 = getelementptr inbounds nuw i8, ptr %.05.i.i.i, i64 40
  %.not.i.i.i = icmp eq ptr %11, %4
  br i1 %.not.i.i.i, label %_ZSt8_DestroyIPN2cv3dnn14dnn4_v2024122312_GLOBAL__N_113CaffeImporter8BlobNoteES5_EvT_S7_RSaIT0_E.exitthread-pre-split, label %.lr.ph.i.i.i, !llvm.loop !41

_ZSt8_DestroyIPN2cv3dnn14dnn4_v2024122312_GLOBAL__N_113CaffeImporter8BlobNoteES5_EvT_S7_RSaIT0_E.exitthread-pre-split: ; preds = %_ZSt8_DestroyIN2cv3dnn14dnn4_v2024122312_GLOBAL__N_113CaffeImporter8BlobNoteEEvPT_.exit.i.i.i
  %.val.pr = load ptr, ptr %0, align 8, !tbaa !36
  br label %_ZSt8_DestroyIPN2cv3dnn14dnn4_v2024122312_GLOBAL__N_113CaffeImporter8BlobNoteES5_EvT_S7_RSaIT0_E.exit

_ZSt8_DestroyIPN2cv3dnn14dnn4_v2024122312_GLOBAL__N_113CaffeImporter8BlobNoteES5_EvT_S7_RSaIT0_E.exit: ; preds = %_ZSt8_DestroyIPN2cv3dnn14dnn4_v2024122312_GLOBAL__N_113CaffeImporter8BlobNoteES5_EvT_S7_RSaIT0_E.exitthread-pre-split, %1
  %.val = phi ptr [ %.val.pr, %_ZSt8_DestroyIPN2cv3dnn14dnn4_v2024122312_GLOBAL__N_113CaffeImporter8BlobNoteES5_EvT_S7_RSaIT0_E.exitthread-pre-split ], [ %2, %1 ]
  %.not.i.i = icmp eq ptr %.val, null
  br i1 %.not.i.i, label %_ZNSt12_Vector_baseIN2cv3dnn14dnn4_v2024122312_GLOBAL__N_113CaffeImporter8BlobNoteESaIS5_EED2Ev.exit, label %12

12:                                               ; preds = %_ZSt8_DestroyIPN2cv3dnn14dnn4_v2024122312_GLOBAL__N_113CaffeImporter8BlobNoteES5_EvT_S7_RSaIT0_E.exit
  tail call void @_ZdlPv(ptr noundef nonnull %.val) #28
  br label %_ZNSt12_Vector_baseIN2cv3dnn14dnn4_v2024122312_GLOBAL__N_113CaffeImporter8BlobNoteESaIS5_EED2Ev.exit

_ZNSt12_Vector_baseIN2cv3dnn14dnn4_v2024122312_GLOBAL__N_113CaffeImporter8BlobNoteESaIS5_EED2Ev.exit: ; preds = %_ZSt8_DestroyIPN2cv3dnn14dnn4_v2024122312_GLOBAL__N_113CaffeImporter8BlobNoteES5_EvT_S7_RSaIT0_E.exit, %12
  ret void
}